; Function Attrs: mustprogress uwtable
define internal void @_ZL29TableSettingsHandler_ClearAllP12ImGuiContextP20ImGuiSettingsHandler(ptr noundef captures(none) %0, ptr readnone captures(none) %1) #0 {
  %3 = getelementptr inbounds nuw i8, ptr %0, i64 8688
  %4 = load i32, ptr %3, align 8, !tbaa !602
  %.not11 = icmp eq i32 %4, 0
  br i1 %.not11, label %._crit_edge, label %.lr.ph

.lr.ph:                                           ; preds = %2
  %5 = getelementptr inbounds nuw i8, ptr %0, i64 8696
  %6 = load ptr, ptr %5, align 8, !tbaa !603
  %7 = getelementptr inbounds nuw i8, ptr %0, i64 8680
  %8 = zext i32 %4 to i64
  br label %14

._crit_edge:                                      ; preds = %22, %2
  %9 = getelementptr inbounds nuw i8, ptr %0, i64 9704
  %10 = load ptr, ptr %9, align 8, !tbaa !323
  %.not.i.i = icmp eq ptr %10, null
  br i1 %.not.i.i, label %_ZN13ImChunkStreamI18ImGuiTableSettingsE5clearEv.exit, label %11

11:                                               ; preds = %._crit_edge
  %12 = getelementptr inbounds nuw i8, ptr %0, i64 9696
  %13 = getelementptr inbounds nuw i8, ptr %0, i64 9700
  store i32 0, ptr %13, align 4, !tbaa !322
  store i32 0, ptr %12, align 8, !tbaa !324
  tail call void @_ZN5ImGui7MemFreeEPv(ptr noundef nonnull %10)
  store ptr null, ptr %9, align 8, !tbaa !323
  br label %_ZN13ImChunkStreamI18ImGuiTableSettingsE5clearEv.exit

_ZN13ImChunkStreamI18ImGuiTableSettingsE5clearEv.exit: ; preds = %._crit_edge, %11
  ret void

14:                                               ; preds = %.lr.ph, %22
  %indvars.iv = phi i64 [ 0, %.lr.ph ], [ %indvars.iv.next, %22 ]
  %15 = getelementptr inbounds nuw %struct.ImGuiStoragePair, ptr %6, i64 %indvars.iv, i32 1
  %16 = load i32, ptr %15, align 8, !tbaa !307
  %17 = icmp eq i32 %16, -1
  %18 = load ptr, ptr %7, align 8
  %.not910 = icmp eq ptr %18, null
  %.not9 = select i1 %17, i1 true, i1 %.not910
  br i1 %.not9, label %22, label %19

19:                                               ; preds = %14
  %20 = sext i32 %16 to i64
  %21 = getelementptr inbounds %struct.ImGuiTable, ptr %18, i64 %20, i32 11
  store i32 -1, ptr %21, align 4, !tbaa !294
  br label %22

22:                                               ; preds = %19, %14
  %indvars.iv.next = add nuw nsw i64 %indvars.iv, 1
  %.not = icmp eq i64 %indvars.iv.next, %8
  br i1 %.not, label %._crit_edge, label %14, !llvm.loop !604
}